; Function Attrs: mustprogress nofree norecurse nosync nounwind willreturn memory(argmem: readwrite) uwtable
define internal noundef range(i64 1, 0) i64 @_ZN2cv12_GLOBAL__N_117opjSkipFromBufferEmPNS_6detail15OpjMemoryBufferE(i64 noundef %0, ptr nocapture noundef %1) #11 {
  %3 = getelementptr inbounds i8, ptr %1, i64 8
  %4 = load ptr, ptr %3, align 8
  %5 = getelementptr inbounds i8, ptr %1, i64 16
  %6 = load i64, ptr %5, align 8
  %7 = getelementptr inbounds i8, ptr %4, i64 %6
  %8 = load ptr, ptr %1, align 8
  %9 = ptrtoint ptr %7 to i64
  %10 = ptrtoint ptr %8 to i64
  %11 = sub i64 %9, %10
  %.sroa.speculated = tail call i64 @llvm.umin.i64(i64 %11, i64 %0)
  %.not = icmp eq i64 %.sroa.speculated, 0
  br i1 %.not, label %14, label %12

12:                                               ; preds = %2
  %13 = getelementptr inbounds i8, ptr %8, i64 %.sroa.speculated
  store ptr %13, ptr %1, align 8
  br label %14

14:                                               ; preds = %2, %12
  %.0 = phi i64 [ %.sroa.speculated, %12 ], [ -1, %2 ]
  ret i64 %.0
}